target datalayout = "e-m:e-p270:32:32-p271:32:32-p272:64:64-i64:64-i128:128-f80:128-n8:16:32:64-S128"
target triple = "x86_64-pc-linux-gnu"

%"struct.llvm::EVT" = type { %"class.llvm::MVT", ptr }
%"class.llvm::MVT" = type { i16 }
%"class.llvm::SDValue" = type <{ ptr, i32, [4 x i8] }>
%"class.llvm::SDNode" = type { %"class.llvm::FoldingSetBase::Node", %"class.llvm::ilist_node", i32, %"struct.llvm::SDNodeFlags", %union.anon, i16, i32, ptr, ptr, ptr, i16, i16, i32, %"class.llvm::DebugLoc", i32, i32 }
%"class.llvm::FoldingSetBase::Node" = type { ptr }
%"class.llvm::ilist_node" = type { %"class.llvm::ilist_node_impl" }
%"class.llvm::ilist_node_impl" = type { %"class.llvm::ilist_node_base" }
%"class.llvm::ilist_node_base" = type { %"class.llvm::ilist_detail::node_base_prevnext" }
%"class.llvm::ilist_detail::node_base_prevnext" = type { ptr, ptr }
%"struct.llvm::SDNodeFlags" = type { i16 }
%union.anon = type { %"class.llvm::SDNode::LSBaseSDNodeBitfields" }
%"class.llvm::SDNode::LSBaseSDNodeBitfields" = type { i16 }
%"class.llvm::DebugLoc" = type { %"class.llvm::TypedTrackingMDRef" }
%"class.llvm::TypedTrackingMDRef" = type { %"class.llvm::TrackingMDRef" }
%"class.llvm::TrackingMDRef" = type { ptr }
%"class.llvm::SDUse" = type { %"class.llvm::SDValue", ptr, ptr, ptr }

@.str.8 = private unnamed_addr constant [52 x i8] c"Do not know how to promote this operator's operand!\00", align 1

; Function Attrs: mustprogress nounwind uwtable
define linkonce_odr hidden { i16, ptr } @_ZNK4llvm6SDNode12getValueTypeEj(ptr noundef nonnull align 8 dereferenceable(88) %0, i32 noundef %1) #0 comdat align 2 {
  %3 = alloca %"struct.llvm::EVT", align 8
  %4 = alloca ptr, align 8
  %5 = alloca i32, align 4
  store ptr %0, ptr %4, align 8
  store i32 %1, ptr %5, align 4
  %6 = load ptr, ptr %4, align 8
  %7 = getelementptr inbounds nuw %"class.llvm::SDNode", ptr %6, i32 0, i32 8
  %8 = load ptr, ptr %7, align 8
  %9 = load i32, ptr %5, align 4
  %10 = zext i32 %9 to i64
  %11 = getelementptr inbounds %"struct.llvm::EVT", ptr %8, i64 %10
  call void @llvm.memcpy.p0.p0.i64(ptr align 8 %3, ptr align 8 %11, i64 16, i1 false)
  %12 = load { i16, ptr }, ptr %3, align 8
  ret { i16, ptr } %12
}

; Function Attrs: mustprogress nounwind uwtable
define linkonce_odr hidden noundef nonnull align 8 dereferenceable(12) ptr @_ZNK4llvm5SDUsecvRKNS_7SDValueEEv(ptr noundef nonnull align 8 dereferenceable(40) %0) #0 comdat align 2 {
  %2 = alloca ptr, align 8
  store ptr %0, ptr %2, align 8
  %3 = load ptr, ptr %2, align 8
  %4 = getelementptr inbounds nuw %"class.llvm::SDUse", ptr %3, i32 0, i32 0
  ret ptr %4
}

; Function Attrs: mustprogress nounwind uwtable
define linkonce_odr hidden void @_ZN4llvm7SDValueC2EPNS_6SDNodeEj(ptr noundef nonnull align 8 dereferenceable(12) %0, ptr noundef %1, i32 noundef %2) unnamed_addr #0 comdat align 2 {
  %4 = alloca ptr, align 8
  %5 = alloca ptr, align 8
  %6 = alloca i32, align 4
  store ptr %0, ptr %4, align 8
  store ptr %1, ptr %5, align 8
  store i32 %2, ptr %6, align 4
  %7 = load ptr, ptr %4, align 8
  %8 = getelementptr inbounds nuw %"class.llvm::SDValue", ptr %7, i32 0, i32 0
  %9 = load ptr, ptr %5, align 8
  store ptr %9, ptr %8, align 8
  %10 = getelementptr inbounds nuw %"class.llvm::SDValue", ptr %7, i32 0, i32 1
  %11 = load i32, ptr %6, align 4
  store i32 %11, ptr %10, align 8
  ret void
}

; Function Attrs: mustprogress nounwind uwtable
define linkonce_odr hidden noundef ptr @_ZNK4llvm7SDValue7getNodeEv(ptr noundef nonnull align 8 dereferenceable(12) %0) #0 comdat align 2 {
  %2 = alloca ptr, align 8
  store ptr %0, ptr %2, align 8
  %3 = load ptr, ptr %2, align 8
  %4 = getelementptr inbounds nuw %"class.llvm::SDValue", ptr %3, i32 0, i32 0
  %5 = load ptr, ptr %4, align 8
  ret ptr %5
}

; Function Attrs: mustprogress nounwind uwtable
define linkonce_odr hidden noundef i32 @_ZNK4llvm6SDNode9getOpcodeEv(ptr noundef nonnull align 8 dereferenceable(88) %0) #0 comdat align 2 {
  %2 = alloca ptr, align 8
  store ptr %0, ptr %2, align 8
  %3 = load ptr, ptr %2, align 8
  %4 = getelementptr inbounds nuw %"class.llvm::SDNode", ptr %3, i32 0, i32 2
  %5 = load i32, ptr %4, align 8
  ret i32 %5
}

; Function Attrs: mustprogress nounwind uwtable
define linkonce_odr hidden { i16, ptr } @_ZNK4llvm7SDValue12getValueTypeEv(ptr noundef nonnull align 8 dereferenceable(12) %0) #0 comdat align 2 {
  %2 = alloca %"struct.llvm::EVT", align 8
  %3 = alloca ptr, align 8
  store ptr %0, ptr %3, align 8
  %4 = load ptr, ptr %3, align 8
  %5 = getelementptr inbounds nuw %"class.llvm::SDValue", ptr %4, i32 0, i32 0
  %6 = load ptr, ptr %5, align 8
  %7 = getelementptr inbounds nuw %"class.llvm::SDValue", ptr %4, i32 0, i32 1
  %8 = load i32, ptr %7, align 8
  %9 = call { i16, ptr } @_ZNK4llvm6SDNode12getValueTypeEj(ptr noundef nonnull align 8 dereferenceable(88) %6, i32 noundef %8)
  %10 = getelementptr inbounds nuw { i16, ptr }, ptr %2, i32 0, i32 0
  %11 = extractvalue { i16, ptr } %9, 0
  store i16 %11, ptr %10, align 8
  %12 = getelementptr inbounds nuw { i16, ptr }, ptr %2, i32 0, i32 1
  %13 = extractvalue { i16, ptr } %9, 1
  store ptr %13, ptr %12, align 8
  %14 = load { i16, ptr }, ptr %2, align 8
  ret { i16, ptr } %14
}

; Function Attrs: mustprogress nounwind uwtable
define linkonce_odr hidden noundef nonnull align 8 dereferenceable(12) ptr @_ZNK4llvm6SDNode10getOperandEj(ptr noundef nonnull align 8 dereferenceable(88) %0, i32 noundef %1) #0 comdat align 2 {
  %3 = alloca ptr, align 8
  %4 = alloca i32, align 4
  store ptr %0, ptr %3, align 8
  store i32 %1, ptr %4, align 4
  %5 = load ptr, ptr %3, align 8
  %6 = getelementptr inbounds nuw %"class.llvm::SDNode", ptr %5, i32 0, i32 7
  %7 = load ptr, ptr %6, align 8
  %8 = load i32, ptr %4, align 4
  %9 = zext i32 %8 to i64
  %10 = getelementptr inbounds %"class.llvm::SDUse", ptr %7, i64 %9
  %11 = call noundef nonnull align 8 dereferenceable(12) ptr @_ZNK4llvm5SDUsecvRKNS_7SDValueEEv(ptr noundef nonnull align 8 dereferenceable(40) %10)
  ret ptr %11
}

; Function Attrs: mustprogress nounwind uwtable
define linkonce_odr hidden void @_ZN4llvm7SDValueC2Ev(ptr noundef nonnull align 8 dereferenceable(12) %0) unnamed_addr #0 comdat align 2 {
  %2 = alloca ptr, align 8
  store ptr %0, ptr %2, align 8
  %3 = load ptr, ptr %2, align 8
  %4 = getelementptr inbounds nuw %"class.llvm::SDValue", ptr %3, i32 0, i32 0
  store ptr null, ptr %4, align 8
  %5 = getelementptr inbounds nuw %"class.llvm::SDValue", ptr %3, i32 0, i32 1
  store i32 0, ptr %5, align 8
  ret void
}

; Function Attrs: mustprogress nounwind uwtable
define hidden noundef zeroext i1 @_ZN4llvm16DAGTypeLegalizer19PromoteFloatOperandEPNS_6SDNodeEj(ptr noundef nonnull align 8 dereferenceable(2512) %0, ptr noundef %1, i32 noundef %2) #0 align 2 {
  %4 = alloca i1, align 1
  %5 = alloca ptr, align 8
  %6 = alloca ptr, align 8
  %7 = alloca i32, align 4
  %8 = alloca %"class.llvm::SDValue", align 8
  %9 = alloca %"struct.llvm::EVT", align 8
  %10 = alloca %"class.llvm::SDValue", align 8
  %11 = alloca { ptr, i32 }, align 8
  %12 = alloca %"class.llvm::SDValue", align 8
  %13 = alloca { ptr, i32 }, align 8
  %14 = alloca %"class.llvm::SDValue", align 8
  %15 = alloca { ptr, i32 }, align 8
  %16 = alloca %"class.llvm::SDValue", align 8
  %17 = alloca { ptr, i32 }, align 8
  %18 = alloca %"class.llvm::SDValue", align 8
  %19 = alloca { ptr, i32 }, align 8
  %20 = alloca %"class.llvm::SDValue", align 8
  %21 = alloca { ptr, i32 }, align 8
  %22 = alloca %"class.llvm::SDValue", align 8
  %23 = alloca { ptr, i32 }, align 8
  %24 = alloca %"class.llvm::SDValue", align 8
  %25 = alloca { ptr, i32 }, align 8
  %26 = alloca %"class.llvm::SDValue", align 8
  %27 = alloca { ptr, i32 }, align 8
  %28 = alloca %"class.llvm::SDValue", align 8
  %29 = alloca { ptr, i32 }, align 8
  %30 = alloca %"class.llvm::SDValue", align 8
  %31 = alloca { ptr, i32 }, align 8
  %32 = alloca %"class.llvm::SDValue", align 8
  %33 = alloca %"class.llvm::SDValue", align 8
  store ptr %0, ptr %5, align 8
  store ptr %1, ptr %6, align 8
  store i32 %2, ptr %7, align 4
  %34 = load ptr, ptr %5, align 8
  br label %35

35:                                               ; preds = %3
  br label %36

36:                                               ; preds = %35
  call void @llvm.memset.p0.i64(ptr align 8 %8, i8 0, i64 16, i1 false)
  call void @_ZN4llvm7SDValueC2Ev(ptr noundef nonnull align 8 dereferenceable(12) %8) #10
  %37 = load ptr, ptr %6, align 8
  %38 = load ptr, ptr %6, align 8
  %39 = load i32, ptr %7, align 4
  %40 = call noundef nonnull align 8 dereferenceable(12) ptr @_ZNK4llvm6SDNode10getOperandEj(ptr noundef nonnull align 8 dereferenceable(88) %38, i32 noundef %39)
  %41 = call { i16, ptr } @_ZNK4llvm7SDValue12getValueTypeEv(ptr noundef nonnull align 8 dereferenceable(12) %40)
  %42 = getelementptr inbounds nuw { i16, ptr }, ptr %9, i32 0, i32 0
  %43 = extractvalue { i16, ptr } %41, 0
  store i16 %43, ptr %42, align 8
  %44 = getelementptr inbounds nuw { i16, ptr }, ptr %9, i32 0, i32 1
  %45 = extractvalue { i16, ptr } %41, 1
  store ptr %45, ptr %44, align 8
  %46 = getelementptr inbounds nuw { i16, ptr }, ptr %9, i32 0, i32 0
  %47 = load i16, ptr %46, align 8
  %48 = getelementptr inbounds nuw { i16, ptr }, ptr %9, i32 0, i32 1
  %49 = load ptr, ptr %48, align 8
  %50 = call noundef zeroext i1 @_ZN4llvm16DAGTypeLegalizer15CustomLowerNodeEPNS_6SDNodeENS_3EVTEb(ptr noundef nonnull align 8 dereferenceable(2512) %34, ptr noundef %37, i16 %47, ptr %49, i1 noundef zeroext false)
  br i1 %50, label %51, label %54

51:                                               ; preds = %36
  br label %52

52:                                               ; preds = %51
  br label %53

53:                                               ; preds = %52
  store i1 false, ptr %4, align 1
  br label %116

54:                                               ; preds = %36
  %55 = load ptr, ptr %6, align 8
  %56 = call noundef i32 @_ZNK4llvm6SDNode9getOpcodeEv(ptr noundef nonnull align 8 dereferenceable(88) %55)
  switch i32 %56, label %57 [
    i32 233, label %58
    i32 362, label %62
    i32 151, label %66
    i32 225, label %70
    i32 226, label %70
    i32 273, label %70
    i32 274, label %70
    i32 275, label %70
    i32 276, label %70
    i32 227, label %74
    i32 228, label %74
    i32 232, label %78
    i32 145, label %82
    i32 206, label %86
    i32 207, label %90
    i32 295, label %94
    i32 335, label %98
  ]

57:                                               ; preds = %54
  call void @_ZN4llvm18report_fatal_errorEPKcb(ptr noundef @.str.8, i1 noundef zeroext true) #11
  unreachable

58:                                               ; preds = %54
  %59 = load ptr, ptr %6, align 8
  %60 = load i32, ptr %7, align 4
  %61 = call { ptr, i32 } @_ZN4llvm16DAGTypeLegalizer22PromoteFloatOp_BITCASTEPNS_6SDNodeEj(ptr noundef nonnull align 8 dereferenceable(2512) %34, ptr noundef %59, i32 noundef %60)
  store { ptr, i32 } %61, ptr %11, align 8
  call void @llvm.memcpy.p0.p0.i64(ptr align 8 %10, ptr align 8 %11, i64 12, i1 false)
  call void @llvm.memcpy.p0.p0.i64(ptr align 8 %8, ptr align 8 %10, i64 12, i1 false)
  br label %102

62:                                               ; preds = %54
  %63 = load ptr, ptr %6, align 8
  %64 = load i32, ptr %7, align 4
  %65 = call { ptr, i32 } @_ZN4llvm16DAGTypeLegalizer23PromoteFloatOp_FAKE_USEEPNS_6SDNodeEj(ptr noundef nonnull align 8 dereferenceable(2512) %34, ptr noundef %63, i32 noundef %64)
  store { ptr, i32 } %65, ptr %13, align 8
  call void @llvm.memcpy.p0.p0.i64(ptr align 8 %12, ptr align 8 %13, i64 12, i1 false)
  call void @llvm.memcpy.p0.p0.i64(ptr align 8 %8, ptr align 8 %12, i64 12, i1 false)
  br label %102

66:                                               ; preds = %54
  %67 = load ptr, ptr %6, align 8
  %68 = load i32, ptr %7, align 4
  %69 = call { ptr, i32 } @_ZN4llvm16DAGTypeLegalizer24PromoteFloatOp_FCOPYSIGNEPNS_6SDNodeEj(ptr noundef nonnull align 8 dereferenceable(2512) %34, ptr noundef %67, i32 noundef %68)
  store { ptr, i32 } %69, ptr %15, align 8
  call void @llvm.memcpy.p0.p0.i64(ptr align 8 %14, ptr align 8 %15, i64 12, i1 false)
  call void @llvm.memcpy.p0.p0.i64(ptr align 8 %8, ptr align 8 %14, i64 12, i1 false)
  br label %102

70:                                               ; preds = %54, %54, %54, %54, %54, %54
  %71 = load ptr, ptr %6, align 8
  %72 = load i32, ptr %7, align 4
  %73 = call { ptr, i32 } @_ZN4llvm16DAGTypeLegalizer22PromoteFloatOp_UnaryOpEPNS_6SDNodeEj(ptr noundef nonnull align 8 dereferenceable(2512) %34, ptr noundef %71, i32 noundef %72)
  store { ptr, i32 } %73, ptr %17, align 8
  call void @llvm.memcpy.p0.p0.i64(ptr align 8 %16, ptr align 8 %17, i64 12, i1 false)
  call void @llvm.memcpy.p0.p0.i64(ptr align 8 %8, ptr align 8 %16, i64 12, i1 false)
  br label %102

74:                                               ; preds = %54, %54
  %75 = load ptr, ptr %6, align 8
  %76 = load i32, ptr %7, align 4
  %77 = call { ptr, i32 } @_ZN4llvm16DAGTypeLegalizer29PromoteFloatOp_FP_TO_XINT_SATEPNS_6SDNodeEj(ptr noundef nonnull align 8 dereferenceable(2512) %34, ptr noundef %75, i32 noundef %76)
  store { ptr, i32 } %77, ptr %19, align 8
  call void @llvm.memcpy.p0.p0.i64(ptr align 8 %18, ptr align 8 %19, i64 12, i1 false)
  call void @llvm.memcpy.p0.p0.i64(ptr align 8 %8, ptr align 8 %18, i64 12, i1 false)
  br label %102

78:                                               ; preds = %54
  %79 = load ptr, ptr %6, align 8
  %80 = load i32, ptr %7, align 4
  %81 = call { ptr, i32 } @_ZN4llvm16DAGTypeLegalizer24PromoteFloatOp_FP_EXTENDEPNS_6SDNodeEj(ptr noundef nonnull align 8 dereferenceable(2512) %34, ptr noundef %79, i32 noundef %80)
  store { ptr, i32 } %81, ptr %21, align 8
  call void @llvm.memcpy.p0.p0.i64(ptr align 8 %20, ptr align 8 %21, i64 12, i1 false)
  call void @llvm.memcpy.p0.p0.i64(ptr align 8 %8, ptr align 8 %20, i64 12, i1 false)
  br label %102

82:                                               ; preds = %54
  %83 = load ptr, ptr %6, align 8
  %84 = load i32, ptr %7, align 4
  %85 = call { ptr, i32 } @_ZN4llvm16DAGTypeLegalizer31PromoteFloatOp_STRICT_FP_EXTENDEPNS_6SDNodeEj(ptr noundef nonnull align 8 dereferenceable(2512) %34, ptr noundef %83, i32 noundef %84)
  store { ptr, i32 } %85, ptr %23, align 8
  call void @llvm.memcpy.p0.p0.i64(ptr align 8 %22, ptr align 8 %23, i64 12, i1 false)
  call void @llvm.memcpy.p0.p0.i64(ptr align 8 %8, ptr align 8 %22, i64 12, i1 false)
  br label %102

86:                                               ; preds = %54
  %87 = load ptr, ptr %6, align 8
  %88 = load i32, ptr %7, align 4
  %89 = call { ptr, i32 } @_ZN4llvm16DAGTypeLegalizer24PromoteFloatOp_SELECT_CCEPNS_6SDNodeEj(ptr noundef nonnull align 8 dereferenceable(2512) %34, ptr noundef %87, i32 noundef %88)
  store { ptr, i32 } %89, ptr %25, align 8
  call void @llvm.memcpy.p0.p0.i64(ptr align 8 %24, ptr align 8 %25, i64 12, i1 false)
  call void @llvm.memcpy.p0.p0.i64(ptr align 8 %8, ptr align 8 %24, i64 12, i1 false)
  br label %102

90:                                               ; preds = %54
  %91 = load ptr, ptr %6, align 8
  %92 = load i32, ptr %7, align 4
  %93 = call { ptr, i32 } @_ZN4llvm16DAGTypeLegalizer20PromoteFloatOp_SETCCEPNS_6SDNodeEj(ptr noundef nonnull align 8 dereferenceable(2512) %34, ptr noundef %91, i32 noundef %92)
  store { ptr, i32 } %93, ptr %27, align 8
  call void @llvm.memcpy.p0.p0.i64(ptr align 8 %26, ptr align 8 %27, i64 12, i1 false)
  call void @llvm.memcpy.p0.p0.i64(ptr align 8 %8, ptr align 8 %26, i64 12, i1 false)
  br label %102

94:                                               ; preds = %54
  %95 = load ptr, ptr %6, align 8
  %96 = load i32, ptr %7, align 4
  %97 = call { ptr, i32 } @_ZN4llvm16DAGTypeLegalizer20PromoteFloatOp_STOREEPNS_6SDNodeEj(ptr noundef nonnull align 8 dereferenceable(2512) %34, ptr noundef %95, i32 noundef %96)
  store { ptr, i32 } %97, ptr %29, align 8
  call void @llvm.memcpy.p0.p0.i64(ptr align 8 %28, ptr align 8 %29, i64 12, i1 false)
  call void @llvm.memcpy.p0.p0.i64(ptr align 8 %8, ptr align 8 %28, i64 12, i1 false)
  br label %102

98:                                               ; preds = %54
  %99 = load ptr, ptr %6, align 8
  %100 = load i32, ptr %7, align 4
  %101 = call { ptr, i32 } @_ZN4llvm16DAGTypeLegalizer27PromoteFloatOp_ATOMIC_STOREEPNS_6SDNodeEj(ptr noundef nonnull align 8 dereferenceable(2512) %34, ptr noundef %99, i32 noundef %100)
  store { ptr, i32 } %101, ptr %31, align 8
  call void @llvm.memcpy.p0.p0.i64(ptr align 8 %30, ptr align 8 %31, i64 12, i1 false)
  call void @llvm.memcpy.p0.p0.i64(ptr align 8 %8, ptr align 8 %30, i64 12, i1 false)
  br label %102

102:                                              ; preds = %98, %94, %90, %86, %82, %78, %74, %70, %66, %62, %58
  %103 = call noundef ptr @_ZNK4llvm7SDValue7getNodeEv(ptr noundef nonnull align 8 dereferenceable(12) %8)
  %104 = icmp ne ptr %103, null
  br i1 %104, label %105, label %115

105:                                              ; preds = %102
  %106 = load ptr, ptr %6, align 8
  call void @_ZN4llvm7SDValueC2EPNS_6SDNodeEj(ptr noundef nonnull align 8 dereferenceable(12) %32, ptr noundef %106, i32 noundef 0)
  call void @llvm.memcpy.p0.p0.i64(ptr align 8 %33, ptr align 8 %8, i64 16, i1 false)
  %107 = getelementptr inbounds nuw { ptr, i32 }, ptr %32, i32 0, i32 0
  %108 = load ptr, ptr %107, align 8
  %109 = getelementptr inbounds nuw { ptr, i32 }, ptr %32, i32 0, i32 1
  %110 = load i32, ptr %109, align 8
  %111 = getelementptr inbounds nuw { ptr, i32 }, ptr %33, i32 0, i32 0
  %112 = load ptr, ptr %111, align 8
  %113 = getelementptr inbounds nuw { ptr, i32 }, ptr %33, i32 0, i32 1
  %114 = load i32, ptr %113, align 8
  call void @_ZN4llvm16DAGTypeLegalizer16ReplaceValueWithENS_7SDValueES1_(ptr noundef nonnull align 8 dereferenceable(2512) %34, ptr %108, i32 %110, ptr %112, i32 %114)
  br label %115

115:                                              ; preds = %105, %102
  store i1 false, ptr %4, align 1
  br label %116

116:                                              ; preds = %115, %53
  %117 = load i1, ptr %4, align 1
  ret i1 %117
}