; Function Attrs: mustprogress nounwind uwtable
define hidden noundef zeroext i1 @_ZN4llvm16DAGTypeLegalizer19PromoteFloatOperandEPNS_6SDNodeEj(ptr noundef nonnull align 8 dereferenceable(2512) %0, ptr noundef %1, i32 noundef %2) local_unnamed_addr #0 align 2 {
  %4 = getelementptr inbounds nuw i8, ptr %1, i64 40
  %5 = load ptr, ptr %4, align 8
  %6 = zext i32 %2 to i64
  %7 = getelementptr inbounds %"class.llvm::SDUse", ptr %5, i64 %6
  %8 = load ptr, ptr %7, align 8
  %9 = getelementptr inbounds nuw i8, ptr %7, i64 8
  %10 = load i32, ptr %9, align 8
  %11 = getelementptr inbounds nuw i8, ptr %8, i64 48
  %12 = load ptr, ptr %11, align 8
  %13 = zext i32 %10 to i64
  %14 = getelementptr inbounds %"struct.llvm::EVT", ptr %12, i64 %13
  %.sroa.0.0.copyload.i.i = load i16, ptr %14, align 8
  %.sroa.21.0..sroa_idx.i.i = getelementptr inbounds i8, ptr %14, i64 8
  %.sroa.21.0.copyload.i.i = load ptr, ptr %.sroa.21.0..sroa_idx.i.i, align 8
  %15 = tail call noundef zeroext i1 @_ZN4llvm16DAGTypeLegalizer15CustomLowerNodeEPNS_6SDNodeENS_3EVTEb(ptr noundef nonnull align 8 dereferenceable(2512) %0, ptr noundef nonnull %1, i16 %.sroa.0.0.copyload.i.i, ptr %.sroa.21.0.copyload.i.i, i1 noundef zeroext false) #15
  br i1 %15, label %44, label %16

16:                                               ; preds = %3
  %17 = getelementptr inbounds nuw i8, ptr %1, i64 24
  %18 = load i32, ptr %17, align 8
  switch i32 %18, label %19 [
    i32 233, label %20
    i32 362, label %22
    i32 151, label %24
    i32 225, label %26
    i32 226, label %26
    i32 273, label %26
    i32 274, label %26
    i32 275, label %26
    i32 276, label %26
    i32 227, label %28
    i32 228, label %28
    i32 232, label %30
    i32 145, label %32
    i32 206, label %34
    i32 207, label %36
    i32 295, label %38
    i32 335, label %40
  ]

19:                                               ; preds = %16
  tail call void @_ZN4llvm18report_fatal_errorEPKcb(ptr noundef nonnull @.str.8, i1 noundef zeroext true) #14
  unreachable

20:                                               ; preds = %16
  %21 = tail call { ptr, i32 } @_ZN4llvm16DAGTypeLegalizer22PromoteFloatOp_BITCASTEPNS_6SDNodeEj(ptr noundef nonnull align 8 dereferenceable(2512) %0, ptr noundef nonnull %1, i32 poison)
  br label %42

22:                                               ; preds = %16
  %23 = tail call { ptr, i32 } @_ZN4llvm16DAGTypeLegalizer23PromoteFloatOp_FAKE_USEEPNS_6SDNodeEj(ptr noundef nonnull align 8 dereferenceable(2512) %0, ptr noundef nonnull %1, i32 noundef %2)
  br label %42

24:                                               ; preds = %16
  %25 = tail call { ptr, i32 } @_ZN4llvm16DAGTypeLegalizer24PromoteFloatOp_FCOPYSIGNEPNS_6SDNodeEj(ptr noundef nonnull align 8 dereferenceable(2512) %0, ptr noundef nonnull %1, i32 poison)
  br label %42

26:                                               ; preds = %16, %16, %16, %16, %16, %16
  %27 = tail call { ptr, i32 } @_ZN4llvm16DAGTypeLegalizer22PromoteFloatOp_UnaryOpEPNS_6SDNodeEj(ptr noundef nonnull align 8 dereferenceable(2512) %0, ptr noundef nonnull %1, i32 poison)
  br label %42

28:                                               ; preds = %16, %16
  %29 = tail call { ptr, i32 } @_ZN4llvm16DAGTypeLegalizer29PromoteFloatOp_FP_TO_XINT_SATEPNS_6SDNodeEj(ptr noundef nonnull align 8 dereferenceable(2512) %0, ptr noundef nonnull %1, i32 poison)
  br label %42

30:                                               ; preds = %16
  %31 = tail call { ptr, i32 } @_ZN4llvm16DAGTypeLegalizer24PromoteFloatOp_FP_EXTENDEPNS_6SDNodeEj(ptr noundef nonnull align 8 dereferenceable(2512) %0, ptr noundef nonnull %1, i32 poison)
  br label %42

32:                                               ; preds = %16
  %33 = tail call { ptr, i32 } @_ZN4llvm16DAGTypeLegalizer31PromoteFloatOp_STRICT_FP_EXTENDEPNS_6SDNodeEj(ptr noundef nonnull align 8 dereferenceable(2512) %0, ptr noundef nonnull %1, i32 poison)
  br label %42

34:                                               ; preds = %16
  %35 = tail call { ptr, i32 } @_ZN4llvm16DAGTypeLegalizer24PromoteFloatOp_SELECT_CCEPNS_6SDNodeEj(ptr noundef nonnull align 8 dereferenceable(2512) %0, ptr noundef nonnull %1, i32 poison)
  br label %42

36:                                               ; preds = %16
  %37 = tail call { ptr, i32 } @_ZN4llvm16DAGTypeLegalizer20PromoteFloatOp_SETCCEPNS_6SDNodeEj(ptr noundef nonnull align 8 dereferenceable(2512) %0, ptr noundef nonnull %1, i32 poison)
  br label %42

38:                                               ; preds = %16
  %39 = tail call { ptr, i32 } @_ZN4llvm16DAGTypeLegalizer20PromoteFloatOp_STOREEPNS_6SDNodeEj(ptr noundef nonnull align 8 dereferenceable(2512) %0, ptr noundef nonnull %1, i32 poison)
  br label %42

40:                                               ; preds = %16
  %41 = tail call { ptr, i32 } @_ZN4llvm16DAGTypeLegalizer27PromoteFloatOp_ATOMIC_STOREEPNS_6SDNodeEj(ptr noundef nonnull align 8 dereferenceable(2512) %0, ptr noundef nonnull %1, i32 poison)
  br label %42

42:                                               ; preds = %40, %38, %36, %34, %32, %30, %28, %26, %24, %22, %20
  %.pn = phi { ptr, i32 } [ %41, %40 ], [ %39, %38 ], [ %37, %36 ], [ %35, %34 ], [ %33, %32 ], [ %31, %30 ], [ %29, %28 ], [ %27, %26 ], [ %25, %24 ], [ %23, %22 ], [ %21, %20 ]
  %.sroa.094.0 = extractvalue { ptr, i32 } %.pn, 0
  %.not = icmp eq ptr %.sroa.094.0, null
  br i1 %.not, label %44, label %43

43:                                               ; preds = %42
  %.sroa.15.0 = extractvalue { ptr, i32 } %.pn, 1
  tail call void @_ZN4llvm16DAGTypeLegalizer16ReplaceValueWithENS_7SDValueES1_(ptr noundef nonnull align 8 dereferenceable(2512) %0, ptr nonnull %1, i32 0, ptr nonnull %.sroa.094.0, i32 %.sroa.15.0) #15
  br label %44

44:                                               ; preds = %42, %43, %3
  ret i1 false
}